; Function Attrs: mustprogress uwtable
define internal void @_ZL6formatB5cxx11PKcz(ptr noalias sret(%"class.std::__cxx11::basic_string") align 8 %agg.result, ptr nocapture noundef readonly %fmt, ...) unnamed_addr #2 personality ptr @__gxx_personality_v0 {
entry:
  %ap = alloca [1 x %struct.__va_list_tag], align 16
  %ap2 = alloca [1 x %struct.__va_list_tag], align 16
  %buf = alloca %"class.std::vector.298", align 8
  %ref.tmp = alloca %"class.std::allocator.6", align 1
  %ref.tmp27 = alloca %"class.std::allocator.6", align 1
  call void @llvm.va_start(ptr nonnull %ap)
  call void @llvm.va_copy(ptr nonnull %ap2, ptr nonnull %ap)
  %call = call i32 @vsnprintf(ptr noundef null, i64 noundef 0, ptr noundef %fmt, ptr noundef nonnull %ap) #44
  %or.cond = icmp ult i32 %call, 2147483647
  br i1 %or.cond, label %do.end, label %if.then

if.then:                                          ; preds = %entry
  %0 = load ptr, ptr @stdout, align 8
  %call5 = call i32 @fflush(ptr noundef %0)
  %1 = load ptr, ptr @stderr, align 8
  %call6 = call i32 (ptr, ptr, ...) @fprintf(ptr noundef %1, ptr noundef nonnull @.str.171, ptr noundef nonnull @.str.172, i32 noundef 171, ptr noundef nonnull @.str.267) #48
  call void @ggml_print_backtrace()
  call void @abort() #45
  unreachable

do.end:                                           ; preds = %entry
  %add = add nuw nsw i32 %call, 1
  %conv = zext nneg i32 %add to i64
  call void @_ZNSaIcEC1Ev(ptr noundef nonnull align 1 dereferenceable(1) %ref.tmp) #44
  invoke void @_ZNSt6vectorIcSaIcEEC2EmRKS0_(ptr noundef nonnull align 8 dereferenceable(24) %buf, i64 noundef %conv, ptr noundef nonnull align 1 dereferenceable(1) %ref.tmp)
          to label %invoke.cont unwind label %lpad

invoke.cont:                                      ; preds = %do.end
  call void @_ZNSaIcED1Ev(ptr noundef nonnull align 1 dereferenceable(1) %ref.tmp) #44
  %2 = load ptr, ptr %buf, align 8
  %call11 = call i32 @vsnprintf(ptr noundef %2, i64 noundef %conv, ptr noundef %fmt, ptr noundef nonnull %ap2) #44
  %cmp13 = icmp eq i32 %call11, %call
  br i1 %cmp13, label %do.end22, label %if.then14

if.then14:                                        ; preds = %invoke.cont
  %3 = load ptr, ptr @stdout, align 8
  %call17 = call i32 @fflush(ptr noundef %3)
  %4 = load ptr, ptr @stderr, align 8
  %call19 = call i32 (ptr, ptr, ...) @fprintf(ptr noundef %4, ptr noundef nonnull @.str.171, ptr noundef nonnull @.str.172, i32 noundef 174, ptr noundef nonnull @.str.268) #48
  invoke void @ggml_print_backtrace()
          to label %invoke.cont20 unwind label %lpad15

invoke.cont20:                                    ; preds = %if.then14
  call void @abort() #45
  unreachable

lpad:                                             ; preds = %do.end
  %5 = landingpad { ptr, i32 }
          cleanup
  call void @_ZNSaIcED1Ev(ptr noundef nonnull align 1 dereferenceable(1) %ref.tmp) #44
  br label %eh.resume

lpad15:                                           ; preds = %if.then14
  %6 = landingpad { ptr, i32 }
          cleanup
  br label %ehcleanup

do.end22:                                         ; preds = %invoke.cont
  call void @llvm.va_end(ptr nonnull %ap2)
  call void @llvm.va_end(ptr nonnull %ap)
  %7 = load ptr, ptr %buf, align 8
  %conv26 = zext nneg i32 %call to i64
  call void @_ZNSaIcEC1Ev(ptr noundef nonnull align 1 dereferenceable(1) %ref.tmp27) #44
  invoke void @_ZNSt7__cxx1112basic_stringIcSt11char_traitsIcESaIcEEC1EPKcmRKS3_(ptr noundef nonnull align 8 dereferenceable(32) %agg.result, ptr noundef %7, i64 noundef %conv26, ptr noundef nonnull align 1 dereferenceable(1) %ref.tmp27)
          to label %invoke.cont29 unwind label %lpad28

invoke.cont29:                                    ; preds = %do.end22
  call void @_ZNSaIcED1Ev(ptr noundef nonnull align 1 dereferenceable(1) %ref.tmp27) #44
  %8 = load ptr, ptr %buf, align 8
  %tobool.not.i.i.i = icmp eq ptr %8, null
  br i1 %tobool.not.i.i.i, label %_ZNSt6vectorIcSaIcEED2Ev.exit, label %if.then.i.i.i

if.then.i.i.i:                                    ; preds = %invoke.cont29
  call void @_ZdlPv(ptr noundef nonnull %8) #42
  br label %_ZNSt6vectorIcSaIcEED2Ev.exit

_ZNSt6vectorIcSaIcEED2Ev.exit:                    ; preds = %invoke.cont29, %if.then.i.i.i
  call void @_ZNSaIcED2Ev(ptr noundef nonnull align 1 dereferenceable(1) %buf) #44
  ret void

lpad28:                                           ; preds = %do.end22
  %9 = landingpad { ptr, i32 }
          cleanup
  call void @_ZNSaIcED1Ev(ptr noundef nonnull align 1 dereferenceable(1) %ref.tmp27) #44
  br label %ehcleanup

ehcleanup:                                        ; preds = %lpad28, %lpad15
  %.pn = phi { ptr, i32 } [ %9, %lpad28 ], [ %6, %lpad15 ]
  %10 = load ptr, ptr %buf, align 8
  %tobool.not.i.i.i9 = icmp eq ptr %10, null
  br i1 %tobool.not.i.i.i9, label %_ZNSt6vectorIcSaIcEED2Ev.exit11, label %if.then.i.i.i10

if.then.i.i.i10:                                  ; preds = %ehcleanup
  call void @_ZdlPv(ptr noundef nonnull %10) #42
  br label %_ZNSt6vectorIcSaIcEED2Ev.exit11

_ZNSt6vectorIcSaIcEED2Ev.exit11:                  ; preds = %ehcleanup, %if.then.i.i.i10
  call void @_ZNSaIcED2Ev(ptr noundef nonnull align 1 dereferenceable(1) %buf) #44
  br label %eh.resume

eh.resume:                                        ; preds = %_ZNSt6vectorIcSaIcEED2Ev.exit11, %lpad
  %.pn.pn = phi { ptr, i32 } [ %.pn, %_ZNSt6vectorIcSaIcEED2Ev.exit11 ], [ %5, %lpad ]
  resume { ptr, i32 } %.pn.pn
}